; Function Attrs: nounwind uwtable
define noalias noundef ptr @Scl_LibertyReadFloatVec(ptr noundef %0) local_unnamed_addr #4 {
  %2 = tail call noalias dereferenceable_or_null(16) ptr @malloc(i64 noundef 16) #28
  %3 = getelementptr inbounds nuw i8, ptr %2, i64 4
  store i32 0, ptr %3, align 4
  store i32 100, ptr %2, align 8
  %4 = tail call noalias dereferenceable_or_null(400) ptr @malloc(i64 noundef 400) #28
  %5 = getelementptr inbounds nuw i8, ptr %2, i64 8
  store ptr %4, ptr %5, align 8
  %6 = tail call ptr @strtok(ptr noundef %0, ptr noundef nonnull @.str.59) #29
  %.not5 = icmp eq ptr %6, null
  br i1 %.not5, label %._crit_edge, label %.lr.ph

.lr.ph:                                           ; preds = %1, %Vec_FltPush.exit
  %.06 = phi ptr [ %36, %Vec_FltPush.exit ], [ %6, %1 ]
  %7 = tail call double @atof(ptr noundef nonnull %.06) #30
  %8 = fptrunc double %7 to float
  %9 = load i32, ptr %3, align 4
  %10 = load i32, ptr %2, align 8
  %11 = icmp eq i32 %9, %10
  br i1 %11, label %12, label %.Vec_FltGrow.exit11_crit_edge.i

.Vec_FltGrow.exit11_crit_edge.i:                  ; preds = %.lr.ph
  %.pre.i = load ptr, ptr %5, align 8
  br label %Vec_FltPush.exit

12:                                               ; preds = %.lr.ph
  %13 = icmp slt i32 %9, 16
  br i1 %13, label %14, label %21

14:                                               ; preds = %12
  %15 = load ptr, ptr %5, align 8
  %.not9.i.i = icmp eq ptr %15, null
  br i1 %.not9.i.i, label %18, label %16

16:                                               ; preds = %14
  %17 = tail call dereferenceable_or_null(64) ptr @realloc(ptr noundef nonnull %15, i64 noundef 64) #27
  br label %Vec_FltGrow.exit.i

18:                                               ; preds = %14
  %19 = tail call noalias dereferenceable_or_null(64) ptr @malloc(i64 noundef 64) #28
  br label %Vec_FltGrow.exit.i

Vec_FltGrow.exit.i:                               ; preds = %18, %16
  %20 = phi ptr [ %17, %16 ], [ %19, %18 ]
  store ptr %20, ptr %5, align 8
  store i32 16, ptr %2, align 8
  br label %Vec_FltPush.exit

21:                                               ; preds = %12
  %22 = shl nuw nsw i32 %9, 1
  %23 = load ptr, ptr %5, align 8
  %.not9.i10.i = icmp eq ptr %23, null
  %24 = zext nneg i32 %22 to i64
  %25 = shl nuw nsw i64 %24, 2
  br i1 %.not9.i10.i, label %28, label %26

26:                                               ; preds = %21
  %27 = tail call ptr @realloc(ptr noundef nonnull %23, i64 noundef %25) #27
  br label %30

28:                                               ; preds = %21
  %29 = tail call noalias ptr @malloc(i64 noundef %25) #28
  br label %30

30:                                               ; preds = %28, %26
  %31 = phi ptr [ %27, %26 ], [ %29, %28 ]
  store ptr %31, ptr %5, align 8
  store i32 %22, ptr %2, align 8
  br label %Vec_FltPush.exit

Vec_FltPush.exit:                                 ; preds = %.Vec_FltGrow.exit11_crit_edge.i, %Vec_FltGrow.exit.i, %30
  %32 = phi ptr [ %.pre.i, %.Vec_FltGrow.exit11_crit_edge.i ], [ %31, %30 ], [ %20, %Vec_FltGrow.exit.i ]
  %33 = add nsw i32 %9, 1
  store i32 %33, ptr %3, align 4
  %34 = sext i32 %9 to i64
  %35 = getelementptr inbounds float, ptr %32, i64 %34
  store float %8, ptr %35, align 4
  %36 = tail call ptr @strtok(ptr noundef null, ptr noundef nonnull @.str.59) #29
  %.not = icmp eq ptr %36, null
  br i1 %.not, label %._crit_edge, label %.lr.ph, !llvm.loop !59

._crit_edge:                                      ; preds = %Vec_FltPush.exit, %1
  ret ptr %2
}